target datalayout = "e-m:e-p270:32:32-p271:32:32-p272:64:64-i64:64-i128:128-f80:128-n8:16:32:64-S128"
target triple = "x86_64-unknown-linux-gnu"

%"class.Assimp::Ogre::OgreXmlSerializer" = type { ptr }

@_ZN6Assimp4Ogre17OgreXmlSerializerC1EPNS_10TXmlParserIN4pugi8xml_nodeEEE = hidden unnamed_addr alias void (ptr, ptr), ptr @_ZN6Assimp4Ogre17OgreXmlSerializerC2EPNS_10TXmlParserIN4pugi8xml_nodeEEE

; Function Attrs: mustprogress uwtable
define hidden noundef ptr @_ZN6Assimp4Ogre17OgreXmlSerializer10ImportMeshEPNS_10TXmlParserIN4pugi8xml_nodeEEE(ptr noundef %parser) #2 align 2 personality ptr @__gxx_personality_v0 {
entry:
  %retval = alloca ptr, align 8
  %parser.addr = alloca ptr, align 8
  %serializer = alloca %"class.Assimp::Ogre::OgreXmlSerializer", align 8
  %mesh = alloca ptr, align 8
  %exn.slot = alloca ptr, align 8
  %ehselector.slot = alloca i32, align 4
  store ptr %parser, ptr %parser.addr, align 8
  %0 = load ptr, ptr %parser.addr, align 8
  %cmp = icmp eq ptr null, %0
  br i1 %cmp, label %if.then, label %if.end

if.then:                                          ; preds = %entry
  store ptr null, ptr %retval, align 8
  br label %return

if.end:                                           ; preds = %entry
  %1 = load ptr, ptr %parser.addr, align 8
  call void @_ZN6Assimp4Ogre17OgreXmlSerializerC1EPNS_10TXmlParserIN4pugi8xml_nodeEEE(ptr noundef nonnull align 8 dereferenceable(8) %serializer, ptr noundef %1)
  %call = call noalias noundef nonnull ptr @_Znwm(i64 noundef 72) #20
  invoke void @_ZN6Assimp4Ogre7MeshXmlC1Ev(ptr noundef nonnull align 8 dereferenceable(72) %call)
          to label %invoke.cont unwind label %lpad

invoke.cont:                                      ; preds = %if.end
  store ptr %call, ptr %mesh, align 8
  %2 = load ptr, ptr %mesh, align 8
  call void @_ZN6Assimp4Ogre17OgreXmlSerializer8ReadMeshEPNS0_7MeshXmlE(ptr noundef nonnull align 8 dereferenceable(8) %serializer, ptr noundef %2)
  %3 = load ptr, ptr %mesh, align 8
  store ptr %3, ptr %retval, align 8
  br label %return

lpad:                                             ; preds = %if.end
  %4 = landingpad { ptr, i32 }
          cleanup
  %5 = extractvalue { ptr, i32 } %4, 0
  store ptr %5, ptr %exn.slot, align 8
  %6 = extractvalue { ptr, i32 } %4, 1
  store i32 %6, ptr %ehselector.slot, align 4
  call void @_ZdlPv(ptr noundef %call) #21
  br label %eh.resume

return:                                           ; preds = %invoke.cont, %if.then
  %7 = load ptr, ptr %retval, align 8
  ret ptr %7

eh.resume:                                        ; preds = %lpad
  %exn = load ptr, ptr %exn.slot, align 8
  %sel = load i32, ptr %ehselector.slot, align 4
  %lpad.val = insertvalue { ptr, i32 } poison, ptr %exn, 0
  %lpad.val1 = insertvalue { ptr, i32 } %lpad.val, i32 %sel, 1
  resume { ptr, i32 } %lpad.val1
}