; Function Attrs: mustprogress uwtable
define hidden noundef ptr @_ZN6Assimp4Ogre17OgreXmlSerializer10ImportMeshEPNS_10TXmlParserIN4pugi8xml_nodeEEE(ptr noundef %parser) local_unnamed_addr #4 align 2 personality ptr @__gxx_personality_v0 {
entry:
  %serializer = alloca %"class.Assimp::Ogre::OgreXmlSerializer", align 8
  %cmp = icmp eq ptr %parser, null
  br i1 %cmp, label %return, label %if.end

if.end:                                           ; preds = %entry
  store ptr %parser, ptr %serializer, align 8
  %call = tail call noalias noundef nonnull dereferenceable(72) ptr @_Znwm(i64 noundef 72) #31
  invoke void @_ZN6Assimp4Ogre7MeshXmlC1Ev(ptr noundef nonnull align 8 dereferenceable(72) %call)
          to label %invoke.cont unwind label %lpad

invoke.cont:                                      ; preds = %if.end
  call void @_ZN6Assimp4Ogre17OgreXmlSerializer8ReadMeshEPNS0_7MeshXmlE(ptr noundef nonnull align 8 dereferenceable(8) %serializer, ptr noundef nonnull %call)
  br label %return

lpad:                                             ; preds = %if.end
  %0 = landingpad { ptr, i32 }
          cleanup
  tail call void @_ZdlPv(ptr noundef nonnull %call) #32
  resume { ptr, i32 } %0

return:                                           ; preds = %entry, %invoke.cont
  %retval.0 = phi ptr [ %call, %invoke.cont ], [ null, %entry ]
  ret ptr %retval.0
}